target datalayout = "e-m:e-p270:32:32-p271:32:32-p272:64:64-i64:64-i128:128-f80:128-n8:16:32:64-S128"
target triple = "x86_64-pc-linux-gnu"

; Function Attrs: nounwind uwtable
define i32 @lv_map(i32 noundef %0, i32 noundef %1, i32 noundef %2, i32 noundef %3, i32 noundef %4) #0 {
  %6 = alloca i32, align 4
  %7 = alloca i32, align 4
  %8 = alloca i32, align 4
  %9 = alloca i32, align 4
  %10 = alloca i32, align 4
  %11 = alloca i32, align 4
  %12 = alloca i32, align 4
  %13 = alloca i32, align 4
  store i32 %0, ptr %7, align 4, !tbaa !7
  store i32 %1, ptr %8, align 4, !tbaa !7
  store i32 %2, ptr %9, align 4, !tbaa !7
  store i32 %3, ptr %10, align 4, !tbaa !7
  store i32 %4, ptr %11, align 4, !tbaa !7
  %14 = load i32, ptr %9, align 4, !tbaa !7
  %15 = load i32, ptr %8, align 4, !tbaa !7
  %16 = icmp sge i32 %14, %15
  br i1 %16, label %17, label %23

17:                                               ; preds = %5
  %18 = load i32, ptr %7, align 4, !tbaa !7
  %19 = load i32, ptr %9, align 4, !tbaa !7
  %20 = icmp sge i32 %18, %19
  br i1 %20, label %21, label %23

21:                                               ; preds = %17
  %22 = load i32, ptr %11, align 4, !tbaa !7
  store i32 %22, ptr %6, align 4
  br label %69

23:                                               ; preds = %17, %5
  %24 = load i32, ptr %9, align 4, !tbaa !7
  %25 = load i32, ptr %8, align 4, !tbaa !7
  %26 = icmp sge i32 %24, %25
  br i1 %26, label %27, label %33

27:                                               ; preds = %23
  %28 = load i32, ptr %7, align 4, !tbaa !7
  %29 = load i32, ptr %8, align 4, !tbaa !7
  %30 = icmp sle i32 %28, %29
  br i1 %30, label %31, label %33

31:                                               ; preds = %27
  %32 = load i32, ptr %10, align 4, !tbaa !7
  store i32 %32, ptr %6, align 4
  br label %69

33:                                               ; preds = %27, %23
  %34 = load i32, ptr %9, align 4, !tbaa !7
  %35 = load i32, ptr %8, align 4, !tbaa !7
  %36 = icmp sle i32 %34, %35
  br i1 %36, label %37, label %43

37:                                               ; preds = %33
  %38 = load i32, ptr %7, align 4, !tbaa !7
  %39 = load i32, ptr %9, align 4, !tbaa !7
  %40 = icmp sle i32 %38, %39
  br i1 %40, label %41, label %43

41:                                               ; preds = %37
  %42 = load i32, ptr %11, align 4, !tbaa !7
  store i32 %42, ptr %6, align 4
  br label %69

43:                                               ; preds = %37, %33
  %44 = load i32, ptr %9, align 4, !tbaa !7
  %45 = load i32, ptr %8, align 4, !tbaa !7
  %46 = icmp sle i32 %44, %45
  br i1 %46, label %47, label %53

47:                                               ; preds = %43
  %48 = load i32, ptr %7, align 4, !tbaa !7
  %49 = load i32, ptr %8, align 4, !tbaa !7
  %50 = icmp sge i32 %48, %49
  br i1 %50, label %51, label %53

51:                                               ; preds = %47
  %52 = load i32, ptr %10, align 4, !tbaa !7
  store i32 %52, ptr %6, align 4
  br label %69

53:                                               ; preds = %47, %43
  call void @llvm.lifetime.start.p0(i64 4, ptr %12) #2
  %54 = load i32, ptr %9, align 4, !tbaa !7
  %55 = load i32, ptr %8, align 4, !tbaa !7
  %56 = sub nsw i32 %54, %55
  store i32 %56, ptr %12, align 4, !tbaa !7
  call void @llvm.lifetime.start.p0(i64 4, ptr %13) #2
  %57 = load i32, ptr %11, align 4, !tbaa !7
  %58 = load i32, ptr %10, align 4, !tbaa !7
  %59 = sub nsw i32 %57, %58
  store i32 %59, ptr %13, align 4, !tbaa !7
  %60 = load i32, ptr %7, align 4, !tbaa !7
  %61 = load i32, ptr %8, align 4, !tbaa !7
  %62 = sub nsw i32 %60, %61
  %63 = load i32, ptr %13, align 4, !tbaa !7
  %64 = mul nsw i32 %62, %63
  %65 = load i32, ptr %12, align 4, !tbaa !7
  %66 = sdiv i32 %64, %65
  %67 = load i32, ptr %10, align 4, !tbaa !7
  %68 = add nsw i32 %66, %67
  store i32 %68, ptr %6, align 4
  call void @llvm.lifetime.end.p0(i64 4, ptr %13) #2
  call void @llvm.lifetime.end.p0(i64 4, ptr %12) #2
  br label %69

69:                                               ; preds = %53, %51, %41, %31, %21
  %70 = load i32, ptr %6, align 4
  ret i32 %70
}