; Function Attrs: mustprogress nofree norecurse nosync nounwind willreturn memory(none) uwtable
define i32 @lv_map(i32 noundef %0, i32 noundef %1, i32 noundef %2, i32 noundef %3, i32 noundef %4) local_unnamed_addr #0 {
  %.not = icmp slt i32 %2, %1
  %.not33 = icmp slt i32 %0, %2
  %or.cond = or i1 %.not, %.not33
  br i1 %or.cond, label %6, label %16

6:                                                ; preds = %5
  %.not34 = icmp sgt i32 %0, %1
  %or.cond38 = or i1 %.not34, %.not
  br i1 %or.cond38, label %7, label %16

7:                                                ; preds = %6
  %.not35 = icmp sgt i32 %2, %1
  %.not36 = icmp sgt i32 %0, %2
  %or.cond39 = or i1 %.not35, %.not36
  br i1 %or.cond39, label %8, label %16

8:                                                ; preds = %7
  %.not37 = icmp slt i32 %0, %1
  %or.cond40 = or i1 %.not37, %.not35
  br i1 %or.cond40, label %9, label %16

9:                                                ; preds = %8
  %10 = sub nsw i32 %2, %1
  %11 = sub nsw i32 %4, %3
  %12 = sub nsw i32 %0, %1
  %13 = mul nsw i32 %11, %12
  %14 = sdiv i32 %13, %10
  %15 = add nsw i32 %14, %3
  br label %16

16:                                               ; preds = %8, %7, %6, %5, %9
  %.0 = phi i32 [ %15, %9 ], [ %4, %5 ], [ %3, %6 ], [ %4, %7 ], [ %3, %8 ]
  ret i32 %.0
}